; Function Attrs: mustprogress nounwind uwtable
define internal void @"_ZN4llvm12function_refIFvPNS_8FunctionENS_14FunctionCalleeEEE11callback_fnIZN12_GLOBAL__N_116insertModuleCtorERNS_6ModuleEE3$_0EEvlS2_S3_"(i64 noundef %0, ptr noundef %1, ptr nocapture readnone %2, ptr nocapture readnone %3) #0 align 2 {
  %5 = inttoptr i64 %0 to ptr
  %6 = load i8, ptr getelementptr inbounds (i8, ptr @_ZL12ClWithComdat, i64 128), align 8
  %7 = trunc i8 %6 to i1
  %8 = load ptr, ptr %5, align 8
  br i1 %7, label %10, label %9

9:                                                ; preds = %4
  tail call void @_ZN4llvm19appendToGlobalCtorsERNS_6ModuleEPNS_8FunctionEiPNS_8ConstantE(ptr noundef nonnull align 8 dereferenceable(857) %8, ptr noundef %1, i32 noundef 0, ptr noundef null) #23
  br label %"_ZZN12_GLOBAL__N_116insertModuleCtorERN4llvm6ModuleEENK3$_0clEPNS0_8FunctionENS0_14FunctionCalleeE.exit"

10:                                               ; preds = %4
  %11 = tail call noundef ptr @_ZN4llvm6Module17getOrInsertComdatENS_9StringRefE(ptr noundef nonnull align 8 dereferenceable(857) %8, ptr nonnull @_ZL19kMsanModuleCtorName, i64 16) #23
  tail call void @_ZN4llvm12GlobalObject9setComdatEPNS_6ComdatE(ptr noundef nonnull align 8 dereferenceable(56) %1, ptr noundef %11) #23
  %12 = load ptr, ptr %5, align 8
  tail call void @_ZN4llvm19appendToGlobalCtorsERNS_6ModuleEPNS_8FunctionEiPNS_8ConstantE(ptr noundef nonnull align 8 dereferenceable(857) %12, ptr noundef nonnull %1, i32 noundef 0, ptr noundef nonnull %1) #23
  br label %"_ZZN12_GLOBAL__N_116insertModuleCtorERN4llvm6ModuleEENK3$_0clEPNS0_8FunctionENS0_14FunctionCalleeE.exit"

"_ZZN12_GLOBAL__N_116insertModuleCtorERN4llvm6ModuleEENK3$_0clEPNS0_8FunctionENS0_14FunctionCalleeE.exit": ; preds = %9, %10
  ret void
}